target datalayout = "e-m:e-p270:32:32-p271:32:32-p272:64:64-i64:64-i128:128-f80:128-n8:16:32:64-S128"
target triple = "x86_64-pc-linux-gnu"

%struct.SDL_Window = type { i32, ptr, ptr, i32, i32, i32, i32, i32, i32, i32, i32, float, float, i32, i32, i64, i64, float, i8, i8, i32, i32, %struct.SDL_Rect, %struct.SDL_Rect, %struct.SDL_Rect, i8, i8, i8, %struct.SDL_DisplayMode, %struct.SDL_DisplayMode, %struct.SDL_HDROutputProperties, float, ptr, i8, i8, i8, i8, i8, i8, i8, i8, i8, i32, i32, i32, i32, %struct.SDL_Rect, i32, i8, %struct.SDL_Rect, i32, %struct.SDL_Rect, ptr, ptr, i32, float, i32, i32, ptr, ptr, ptr, ptr, ptr, ptr, ptr, ptr, ptr }
%struct.SDL_DisplayMode = type { i32, i32, i32, i32, float, float, i32, i32, ptr }
%struct.SDL_HDROutputProperties = type { float, float }
%struct.SDL_Rect = type { i32, i32, i32, i32 }

@.str.1 = private unnamed_addr constant [41 x i8] c"Video subsystem has not been initialized\00", align 1
@_this = internal global ptr null, align 8
@.str.20 = private unnamed_addr constant [15 x i8] c"Invalid window\00", align 1

; Function Attrs: nounwind uwtable
define hidden zeroext i1 @SDL_UninitializedVideo() #0 {
  %1 = call zeroext i1 (ptr, ...) @SDL_SetError_REAL(ptr noundef @.str.1)
  ret i1 %1
}

; Function Attrs: nounwind uwtable
define hidden zeroext i1 @SDL_GetWindowPosition_REAL(ptr noundef %0, ptr noundef %1, ptr noundef %2) #0 {
  %4 = alloca i1, align 1
  %5 = alloca ptr, align 8
  %6 = alloca ptr, align 8
  %7 = alloca ptr, align 8
  %8 = alloca i32, align 4
  %9 = alloca %struct.SDL_Rect, align 4
  %10 = alloca i8, align 1
  store ptr %0, ptr %5, align 8
  store ptr %1, ptr %6, align 8
  store ptr %2, ptr %7, align 8
  %11 = load ptr, ptr @_this, align 8
  %12 = icmp ne ptr %11, null
  br i1 %12, label %15, label %13

13:                                               ; preds = %3
  %14 = call zeroext i1 @SDL_UninitializedVideo()
  store i1 false, ptr %4, align 1
  br label %110

15:                                               ; preds = %3
  %16 = load ptr, ptr %5, align 8
  %17 = call zeroext i1 @SDL_ObjectValid(ptr noundef %16, i32 noundef 1)
  br i1 %17, label %20, label %18

18:                                               ; preds = %15
  %19 = call zeroext i1 (ptr, ...) @SDL_SetError_REAL(ptr noundef @.str.20)
  store i1 false, ptr %4, align 1
  br label %110

20:                                               ; preds = %15
  %21 = load ptr, ptr %5, align 8
  %22 = getelementptr inbounds nuw %struct.SDL_Window, ptr %21, i32 0, i32 15
  %23 = load i64, ptr %22, align 8
  %24 = and i64 %23, 1
  %25 = icmp ne i64 %24, 0
  br i1 %25, label %26, label %59

26:                                               ; preds = %20
  call void @llvm.lifetime.start.p0(i64 4, ptr %8) #10
  %27 = load ptr, ptr %6, align 8
  %28 = icmp ne ptr %27, null
  br i1 %28, label %29, label %31

29:                                               ; preds = %26
  %30 = load ptr, ptr %6, align 8
  store i32 0, ptr %30, align 4
  br label %31

31:                                               ; preds = %29, %26
  %32 = load ptr, ptr %7, align 8
  %33 = icmp ne ptr %32, null
  br i1 %33, label %34, label %36

34:                                               ; preds = %31
  %35 = load ptr, ptr %7, align 8
  store i32 0, ptr %35, align 4
  br label %36

36:                                               ; preds = %34, %31
  %37 = load ptr, ptr %5, align 8
  %38 = call i32 @SDL_GetDisplayForWindow_REAL(ptr noundef %37)
  store i32 %38, ptr %8, align 4
  %39 = load i32, ptr %8, align 4
  %40 = icmp ne i32 %39, 0
  br i1 %40, label %41, label %58

41:                                               ; preds = %36
  call void @llvm.lifetime.start.p0(i64 16, ptr %9) #10
  call void @llvm.memset.p0.i64(ptr align 4 %9, i8 0, i64 16, i1 false)
  %42 = load i32, ptr %8, align 4
  %43 = call zeroext i1 @SDL_GetDisplayBounds_REAL(i32 noundef %42, ptr noundef %9)
  %44 = load ptr, ptr %6, align 8
  %45 = icmp ne ptr %44, null
  br i1 %45, label %46, label %50

46:                                               ; preds = %41
  %47 = getelementptr inbounds nuw %struct.SDL_Rect, ptr %9, i32 0, i32 0
  %48 = load i32, ptr %47, align 4
  %49 = load ptr, ptr %6, align 8
  store i32 %48, ptr %49, align 4
  br label %50

50:                                               ; preds = %46, %41
  %51 = load ptr, ptr %7, align 8
  %52 = icmp ne ptr %51, null
  br i1 %52, label %53, label %57

53:                                               ; preds = %50
  %54 = getelementptr inbounds nuw %struct.SDL_Rect, ptr %9, i32 0, i32 1
  %55 = load i32, ptr %54, align 4
  %56 = load ptr, ptr %7, align 8
  store i32 %55, ptr %56, align 4
  br label %57

57:                                               ; preds = %53, %50
  call void @llvm.lifetime.end.p0(i64 16, ptr %9) #10
  br label %58

58:                                               ; preds = %57, %36
  call void @llvm.lifetime.end.p0(i64 4, ptr %8) #10
  br label %109

59:                                               ; preds = %20
  call void @llvm.lifetime.start.p0(i64 1, ptr %10) #10
  %60 = load ptr, ptr %5, align 8
  %61 = getelementptr inbounds nuw %struct.SDL_Window, ptr %60, i32 0, i32 15
  %62 = load i64, ptr %61, align 8
  %63 = and i64 %62, 8
  %64 = icmp ne i64 %63, 0
  br i1 %64, label %65, label %70

65:                                               ; preds = %59
  %66 = load ptr, ptr %5, align 8
  %67 = getelementptr inbounds nuw %struct.SDL_Window, ptr %66, i32 0, i32 36
  %68 = load i8, ptr %67, align 1, !range !5, !noundef !6
  %69 = trunc i8 %68 to i1
  br label %70

70:                                               ; preds = %65, %59
  %71 = phi i1 [ false, %59 ], [ %69, %65 ]
  %72 = zext i1 %71 to i8
  store i8 %72, ptr %10, align 1
  %73 = load ptr, ptr %6, align 8
  %74 = icmp ne ptr %73, null
  br i1 %74, label %75, label %90

75:                                               ; preds = %70
  %76 = load i8, ptr %10, align 1, !range !5, !noundef !6
  %77 = trunc i8 %76 to i1
  br i1 %77, label %78, label %83

78:                                               ; preds = %75
  %79 = load ptr, ptr %5, align 8
  %80 = getelementptr inbounds nuw %struct.SDL_Window, ptr %79, i32 0, i32 24
  %81 = getelementptr inbounds nuw %struct.SDL_Rect, ptr %80, i32 0, i32 0
  %82 = load i32, ptr %81, align 8
  br label %87

83:                                               ; preds = %75
  %84 = load ptr, ptr %5, align 8
  %85 = getelementptr inbounds nuw %struct.SDL_Window, ptr %84, i32 0, i32 3
  %86 = load i32, ptr %85, align 8
  br label %87

87:                                               ; preds = %83, %78
  %88 = phi i32 [ %82, %78 ], [ %86, %83 ]
  %89 = load ptr, ptr %6, align 8
  store i32 %88, ptr %89, align 4
  br label %90

90:                                               ; preds = %87, %70
  %91 = load ptr, ptr %7, align 8
  %92 = icmp ne ptr %91, null
  br i1 %92, label %93, label %108

93:                                               ; preds = %90
  %94 = load i8, ptr %10, align 1, !range !5, !noundef !6
  %95 = trunc i8 %94 to i1
  br i1 %95, label %96, label %101

96:                                               ; preds = %93
  %97 = load ptr, ptr %5, align 8
  %98 = getelementptr inbounds nuw %struct.SDL_Window, ptr %97, i32 0, i32 24
  %99 = getelementptr inbounds nuw %struct.SDL_Rect, ptr %98, i32 0, i32 1
  %100 = load i32, ptr %99, align 4
  br label %105

101:                                              ; preds = %93
  %102 = load ptr, ptr %5, align 8
  %103 = getelementptr inbounds nuw %struct.SDL_Window, ptr %102, i32 0, i32 4
  %104 = load i32, ptr %103, align 4
  br label %105

105:                                              ; preds = %101, %96
  %106 = phi i32 [ %100, %96 ], [ %104, %101 ]
  %107 = load ptr, ptr %7, align 8
  store i32 %106, ptr %107, align 4
  br label %108

108:                                              ; preds = %105, %90
  call void @llvm.lifetime.end.p0(i64 1, ptr %10) #10
  br label %109

109:                                              ; preds = %108, %58
  store i1 true, ptr %4, align 1
  br label %110

110:                                              ; preds = %109, %18, %13
  %111 = load i1, ptr %4, align 1
  ret i1 %111
}