; Function Attrs: nounwind uwtable
define hidden noundef zeroext i1 @SDL_GetWindowPosition_REAL(ptr noundef %0, ptr noundef writeonly captures(address_is_null) %1, ptr noundef writeonly captures(address_is_null) %2) local_unnamed_addr #0 {
  %4 = alloca %struct.SDL_Rect, align 4
  %5 = load ptr, ptr @_this, align 8
  %.not = icmp eq ptr %5, null
  br i1 %.not, label %6, label %8

6:                                                ; preds = %3
  %7 = tail call zeroext i1 (ptr, ...) @SDL_SetError_REAL(ptr noundef nonnull @.str.1) #19
  br label %44

8:                                                ; preds = %3
  %9 = tail call zeroext i1 @SDL_ObjectValid(ptr noundef %0, i32 noundef 1) #19
  br i1 %9, label %12, label %10

10:                                               ; preds = %8
  %11 = tail call zeroext i1 (ptr, ...) @SDL_SetError_REAL(ptr noundef nonnull @.str.20) #19
  br label %44

12:                                               ; preds = %8
  %13 = getelementptr inbounds nuw i8, ptr %0, i64 72
  %14 = load i64, ptr %13, align 8
  %15 = and i64 %14, 1
  %.not30 = icmp eq i64 %15, 0
  br i1 %.not30, label %31, label %16

16:                                               ; preds = %12
  %.not35 = icmp eq ptr %1, null
  br i1 %.not35, label %18, label %17

17:                                               ; preds = %16
  store i32 0, ptr %1, align 4
  br label %18

18:                                               ; preds = %17, %16
  %.not36 = icmp eq ptr %2, null
  br i1 %.not36, label %20, label %19

19:                                               ; preds = %18
  store i32 0, ptr %2, align 4
  br label %20

20:                                               ; preds = %19, %18
  %21 = tail call i32 @SDL_GetDisplayForWindow_REAL(ptr noundef nonnull %0)
  %.not37 = icmp eq i32 %21, 0
  br i1 %.not37, label %44, label %22

22:                                               ; preds = %20
  call void @llvm.lifetime.start.p0(i64 16, ptr nonnull %4) #19
  call void @llvm.memset.p0.i64(ptr noundef nonnull align 4 dereferenceable(16) %4, i8 0, i64 16, i1 false)
  %23 = call zeroext i1 @SDL_GetDisplayBounds_REAL(i32 noundef %21, ptr noundef nonnull %4)
  br i1 %.not35, label %26, label %24

24:                                               ; preds = %22
  %25 = load i32, ptr %4, align 4
  store i32 %25, ptr %1, align 4
  br label %26

26:                                               ; preds = %24, %22
  br i1 %.not36, label %30, label %27

27:                                               ; preds = %26
  %28 = getelementptr inbounds nuw i8, ptr %4, i64 4
  %29 = load i32, ptr %28, align 4
  store i32 %29, ptr %2, align 4
  br label %30

30:                                               ; preds = %27, %26
  call void @llvm.lifetime.end.p0(i64 16, ptr nonnull %4) #19
  br label %44

31:                                               ; preds = %12
  %32 = and i64 %14, 8
  %.not31 = icmp eq i64 %32, 0
  br i1 %.not31, label %37, label %33

33:                                               ; preds = %31
  %34 = getelementptr inbounds nuw i8, ptr %0, i64 267
  %35 = load i8, ptr %34, align 1, !range !6, !noundef !7
  %36 = trunc nuw i8 %35 to i1
  br label %37

37:                                               ; preds = %33, %31
  %38 = phi i1 [ false, %31 ], [ %36, %33 ]
  %.not32 = icmp eq ptr %1, null
  br i1 %.not32, label %41, label %39

39:                                               ; preds = %37
  %.in.v = select i1 %38, i64 136, i64 24
  %.in = getelementptr inbounds nuw i8, ptr %0, i64 %.in.v
  %40 = load i32, ptr %.in, align 8
  store i32 %40, ptr %1, align 4
  br label %41

41:                                               ; preds = %39, %37
  %.not33 = icmp eq ptr %2, null
  br i1 %.not33, label %44, label %42

42:                                               ; preds = %41
  %.in34.v = select i1 %38, i64 140, i64 28
  %.in34 = getelementptr inbounds nuw i8, ptr %0, i64 %.in34.v
  %43 = load i32, ptr %.in34, align 4
  store i32 %43, ptr %2, align 4
  br label %44

44:                                               ; preds = %30, %20, %42, %41, %10, %6
  %.0 = phi i1 [ false, %10 ], [ false, %6 ], [ true, %41 ], [ true, %42 ], [ true, %20 ], [ true, %30 ]
  ret i1 %.0
}